target datalayout = "e-m:e-p270:32:32-p271:32:32-p272:64:64-i64:64-i128:128-f80:128-n8:16:32:64-S128"
target triple = "x86_64-pc-linux-gnu"

; Function Attrs: inlinehint nounwind willreturn memory(read) uwtable
define available_externally i32 @tolower(i32 noundef %0) #16 {
  %2 = alloca i32, align 4
  store i32 %0, ptr %2, align 4, !tbaa !44
  %3 = load i32, ptr %2, align 4, !tbaa !44
  %4 = icmp sge i32 %3, -128
  br i1 %4, label %5, label %15

5:                                                ; preds = %1
  %6 = load i32, ptr %2, align 4, !tbaa !44
  %7 = icmp slt i32 %6, 256
  br i1 %7, label %8, label %15

8:                                                ; preds = %5
  %9 = call ptr @__ctype_tolower_loc() #24
  %10 = load ptr, ptr %9, align 8, !tbaa !126
  %11 = load i32, ptr %2, align 4, !tbaa !44
  %12 = sext i32 %11 to i64
  %13 = getelementptr inbounds i32, ptr %10, i64 %12
  %14 = load i32, ptr %13, align 4, !tbaa !44
  br label %17

15:                                               ; preds = %5, %1
  %16 = load i32, ptr %2, align 4, !tbaa !44
  br label %17

17:                                               ; preds = %15, %8
  %18 = phi i32 [ %14, %8 ], [ %16, %15 ]
  ret i32 %18
}

; Function Attrs: nounwind uwtable
define dso_local i32 @zend_binary_strncasecmp_l(ptr noundef %0, i64 noundef %1, ptr noundef %2, i64 noundef %3, i64 noundef %4) #0 {
  %6 = alloca i32, align 4
  %7 = alloca ptr, align 8
  %8 = alloca i64, align 8
  %9 = alloca ptr, align 8
  %10 = alloca i64, align 8
  %11 = alloca i64, align 8
  %12 = alloca i64, align 8
  %13 = alloca i32, align 4
  %14 = alloca i32, align 4
  %15 = alloca i32, align 4
  %16 = alloca i32, align 4
  %17 = alloca i32, align 4
  %18 = alloca i32, align 4
  %19 = alloca i32, align 4
  store ptr %0, ptr %7, align 8, !tbaa !4
  store i64 %1, ptr %8, align 8, !tbaa !9
  store ptr %2, ptr %9, align 8, !tbaa !4
  store i64 %3, ptr %10, align 8, !tbaa !9
  store i64 %4, ptr %11, align 8, !tbaa !9
  call void @llvm.lifetime.start.p0(i64 8, ptr %12) #20
  call void @llvm.lifetime.start.p0(i64 4, ptr %13) #20
  call void @llvm.lifetime.start.p0(i64 4, ptr %14) #20
  %20 = load ptr, ptr %7, align 8, !tbaa !4
  %21 = load ptr, ptr %9, align 8, !tbaa !4
  %22 = icmp eq ptr %20, %21
  br i1 %22, label %23, label %24

23:                                               ; preds = %5
  store i32 0, ptr %6, align 4
  store i32 1, ptr %15, align 4
  br label %121

24:                                               ; preds = %5
  %25 = load i64, ptr %11, align 8, !tbaa !9
  %26 = load i64, ptr %8, align 8, !tbaa !9
  %27 = load i64, ptr %10, align 8, !tbaa !9
  %28 = icmp ult i64 %26, %27
  br i1 %28, label %29, label %31

29:                                               ; preds = %24
  %30 = load i64, ptr %8, align 8, !tbaa !9
  br label %33

31:                                               ; preds = %24
  %32 = load i64, ptr %10, align 8, !tbaa !9
  br label %33

33:                                               ; preds = %31, %29
  %34 = phi i64 [ %30, %29 ], [ %32, %31 ]
  %35 = icmp ult i64 %25, %34
  br i1 %35, label %36, label %38

36:                                               ; preds = %33
  %37 = load i64, ptr %11, align 8, !tbaa !9
  br label %48

38:                                               ; preds = %33
  %39 = load i64, ptr %8, align 8, !tbaa !9
  %40 = load i64, ptr %10, align 8, !tbaa !9
  %41 = icmp ult i64 %39, %40
  br i1 %41, label %42, label %44

42:                                               ; preds = %38
  %43 = load i64, ptr %8, align 8, !tbaa !9
  br label %46

44:                                               ; preds = %38
  %45 = load i64, ptr %10, align 8, !tbaa !9
  br label %46

46:                                               ; preds = %44, %42
  %47 = phi i64 [ %43, %42 ], [ %45, %44 ]
  br label %48

48:                                               ; preds = %46, %36
  %49 = phi i64 [ %37, %36 ], [ %47, %46 ]
  store i64 %49, ptr %12, align 8, !tbaa !9
  br label %50

50:                                               ; preds = %76, %48
  %51 = load i64, ptr %12, align 8, !tbaa !9
  %52 = add i64 %51, -1
  store i64 %52, ptr %12, align 8, !tbaa !9
  %53 = icmp ne i64 %51, 0
  br i1 %53, label %54, label %77

54:                                               ; preds = %50
  call void @llvm.lifetime.start.p0(i64 4, ptr %16) #20
  %55 = load ptr, ptr %7, align 8, !tbaa !4
  %56 = getelementptr inbounds nuw i8, ptr %55, i32 1
  store ptr %56, ptr %7, align 8, !tbaa !4
  %57 = load i8, ptr %55, align 1, !tbaa !11
  %58 = zext i8 %57 to i32
  %59 = call i32 @tolower(i32 noundef %58) #19
  store i32 %59, ptr %16, align 4, !tbaa !44
  %60 = load i32, ptr %16, align 4, !tbaa !44
  store i32 %60, ptr %17, align 4, !tbaa !44
  call void @llvm.lifetime.end.p0(i64 4, ptr %16) #20
  %61 = load i32, ptr %17, align 4, !tbaa !44
  store i32 %61, ptr %13, align 4, !tbaa !44
  call void @llvm.lifetime.start.p0(i64 4, ptr %18) #20
  %62 = load ptr, ptr %9, align 8, !tbaa !4
  %63 = getelementptr inbounds nuw i8, ptr %62, i32 1
  store ptr %63, ptr %9, align 8, !tbaa !4
  %64 = load i8, ptr %62, align 1, !tbaa !11
  %65 = zext i8 %64 to i32
  %66 = call i32 @tolower(i32 noundef %65) #19
  store i32 %66, ptr %18, align 4, !tbaa !44
  %67 = load i32, ptr %18, align 4, !tbaa !44
  store i32 %67, ptr %19, align 4, !tbaa !44
  call void @llvm.lifetime.end.p0(i64 4, ptr %18) #20
  %68 = load i32, ptr %19, align 4, !tbaa !44
  store i32 %68, ptr %14, align 4, !tbaa !44
  %69 = load i32, ptr %13, align 4, !tbaa !44
  %70 = load i32, ptr %14, align 4, !tbaa !44
  %71 = icmp ne i32 %69, %70
  br i1 %71, label %72, label %76

72:                                               ; preds = %54
  %73 = load i32, ptr %13, align 4, !tbaa !44
  %74 = load i32, ptr %14, align 4, !tbaa !44
  %75 = sub nsw i32 %73, %74
  store i32 %75, ptr %6, align 4
  store i32 1, ptr %15, align 4
  br label %121

76:                                               ; preds = %54
  br label %50

77:                                               ; preds = %50
  %78 = load i64, ptr %11, align 8, !tbaa !9
  %79 = load i64, ptr %8, align 8, !tbaa !9
  %80 = icmp ult i64 %78, %79
  br i1 %80, label %81, label %83

81:                                               ; preds = %77
  %82 = load i64, ptr %11, align 8, !tbaa !9
  br label %85

83:                                               ; preds = %77
  %84 = load i64, ptr %8, align 8, !tbaa !9
  br label %85

85:                                               ; preds = %83, %81
  %86 = phi i64 [ %82, %81 ], [ %84, %83 ]
  %87 = load i64, ptr %11, align 8, !tbaa !9
  %88 = load i64, ptr %10, align 8, !tbaa !9
  %89 = icmp ult i64 %87, %88
  br i1 %89, label %90, label %92

90:                                               ; preds = %85
  %91 = load i64, ptr %11, align 8, !tbaa !9
  br label %94

92:                                               ; preds = %85
  %93 = load i64, ptr %10, align 8, !tbaa !9
  br label %94

94:                                               ; preds = %92, %90
  %95 = phi i64 [ %91, %90 ], [ %93, %92 ]
  %96 = icmp eq i64 %86, %95
  br i1 %96, label %97, label %98

97:                                               ; preds = %94
  br label %119

98:                                               ; preds = %94
  %99 = load i64, ptr %11, align 8, !tbaa !9
  %100 = load i64, ptr %8, align 8, !tbaa !9
  %101 = icmp ult i64 %99, %100
  br i1 %101, label %102, label %104

102:                                              ; preds = %98
  %103 = load i64, ptr %11, align 8, !tbaa !9
  br label %106

104:                                              ; preds = %98
  %105 = load i64, ptr %8, align 8, !tbaa !9
  br label %106

106:                                              ; preds = %104, %102
  %107 = phi i64 [ %103, %102 ], [ %105, %104 ]
  %108 = load i64, ptr %11, align 8, !tbaa !9
  %109 = load i64, ptr %10, align 8, !tbaa !9
  %110 = icmp ult i64 %108, %109
  br i1 %110, label %111, label %113

111:                                              ; preds = %106
  %112 = load i64, ptr %11, align 8, !tbaa !9
  br label %115

113:                                              ; preds = %106
  %114 = load i64, ptr %10, align 8, !tbaa !9
  br label %115

115:                                              ; preds = %113, %111
  %116 = phi i64 [ %112, %111 ], [ %114, %113 ]
  %117 = icmp ult i64 %107, %116
  %118 = select i1 %117, i32 -1, i32 1
  br label %119

119:                                              ; preds = %115, %97
  %120 = phi i32 [ 0, %97 ], [ %118, %115 ]
  store i32 %120, ptr %6, align 4
  store i32 1, ptr %15, align 4
  br label %121

121:                                              ; preds = %119, %72, %23
  call void @llvm.lifetime.end.p0(i64 4, ptr %14) #20
  call void @llvm.lifetime.end.p0(i64 4, ptr %13) #20
  call void @llvm.lifetime.end.p0(i64 8, ptr %12) #20
  %122 = load i32, ptr %6, align 4
  ret i32 %122
}