; Function Attrs: nofree nosync nounwind memory(read, inaccessiblemem: none) uwtable
define dso_local i32 @zend_binary_strncasecmp_l(ptr noundef readonly captures(address) %0, i64 noundef %1, ptr noundef readonly captures(address) %2, i64 noundef %3, i64 noundef %4) local_unnamed_addr #18 {
  %6 = icmp eq ptr %0, %2
  br i1 %6, label %32, label %7

7:                                                ; preds = %5
  %8 = tail call i64 @llvm.umin.i64(i64 %1, i64 %3)
  %. = tail call i64 @llvm.umin.i64(i64 %4, i64 %8)
  br label %9

9:                                                ; preds = %tolower.exit, %7
  %.041 = phi i64 [ %., %7 ], [ %10, %tolower.exit ]
  %.040 = phi ptr [ %2, %7 ], [ %18, %tolower.exit ]
  %.039 = phi ptr [ %0, %7 ], [ %11, %tolower.exit ]
  %.not = icmp eq i64 %.041, 0
  br i1 %.not, label %25, label %tolower.exit

tolower.exit:                                     ; preds = %9
  %10 = add i64 %.041, -1
  %11 = getelementptr inbounds nuw i8, ptr %.039, i64 1
  %12 = load i8, ptr %.039, align 1, !tbaa !4
  %13 = tail call ptr @__ctype_tolower_loc() #33
  %14 = load ptr, ptr %13, align 8, !tbaa !131
  %15 = zext i8 %12 to i64
  %16 = getelementptr inbounds nuw i32, ptr %14, i64 %15
  %17 = load i32, ptr %16, align 4, !tbaa !95
  %18 = getelementptr inbounds nuw i8, ptr %.040, i64 1
  %19 = load i8, ptr %.040, align 1, !tbaa !4
  %20 = zext i8 %19 to i64
  %21 = getelementptr inbounds nuw i32, ptr %14, i64 %20
  %22 = load i32, ptr %21, align 4, !tbaa !95
  %.not50 = icmp eq i32 %17, %22
  br i1 %.not50, label %9, label %23

23:                                               ; preds = %tolower.exit
  %24 = sub nsw i32 %17, %22
  br label %32

25:                                               ; preds = %9
  %26 = tail call i64 @llvm.umin.i64(i64 %4, i64 %1)
  %27 = tail call i64 @llvm.umin.i64(i64 %4, i64 %3)
  %28 = icmp eq i64 %26, %27
  %29 = icmp ult i64 %1, %27
  %30 = select i1 %29, i32 -1, i32 1
  %31 = select i1 %28, i32 0, i32 %30
  br label %32

32:                                               ; preds = %5, %25, %23
  %.0 = phi i32 [ %24, %23 ], [ %31, %25 ], [ 0, %5 ]
  ret i32 %.0
}